target datalayout = "e-m:e-p270:32:32-p271:32:32-p272:64:64-i64:64-i128:128-f80:128-n8:16:32:64-S128"
target triple = "x86_64-pc-linux-gnu"

%struct.AVRational = type { i32, i32 }
%struct.AVChannelLayout = type { i32, i32, %union.anon.0, ptr }
%union.anon.0 = type { i64 }
%struct.GetByteContext = type { ptr, ptr, ptr }
%struct.SGAVideoContext = type { %struct.GetByteContext, i32, i32, i32, i32, i32, i32, i32, i32, i32, i32, i32, i32, i32, i32, i32, i32, i32, [256 x i32], ptr, i32, ptr, i32, [65536 x i8] }
%struct.AVFrame = type { [8 x ptr], [8 x i32], ptr, i32, i32, i32, i32, i32, %struct.AVRational, i64, i64, %struct.AVRational, i32, ptr, i32, i32, [8 x ptr], ptr, i32, ptr, i32, i32, i32, i32, i32, i32, i32, i64, ptr, i32, ptr, ptr, i64, i64, i64, i64, ptr, %struct.AVChannelLayout, i64 }

; Function Attrs: nounwind uwtable
define internal i32 @decode_index_palmap(ptr noundef %0, ptr noundef %1) #1 {
  %3 = alloca ptr, align 8
  %4 = alloca ptr, align 8
  %5 = alloca ptr, align 8
  %6 = alloca i32, align 4
  %7 = alloca i32, align 4
  %8 = alloca i32, align 4
  %9 = alloca i32, align 4
  %10 = alloca ptr, align 8
  %11 = alloca i32, align 4
  %12 = alloca i32, align 4
  store ptr %0, ptr %3, align 8, !tbaa !35
  store ptr %1, ptr %4, align 8, !tbaa !29
  call void @llvm.lifetime.start.p0(i64 8, ptr %5) #10
  %13 = load ptr, ptr %3, align 8, !tbaa !35
  %14 = getelementptr inbounds nuw %struct.SGAVideoContext, ptr %13, i32 0, i32 19
  %15 = load ptr, ptr %14, align 8, !tbaa !52
  store ptr %15, ptr %5, align 8, !tbaa !72
  call void @llvm.lifetime.start.p0(i64 4, ptr %6) #10
  store i32 0, ptr %6, align 4, !tbaa !49
  br label %16

16:                                               ; preds = %108, %2
  %17 = load i32, ptr %6, align 4, !tbaa !49
  %18 = load ptr, ptr %3, align 8, !tbaa !35
  %19 = getelementptr inbounds nuw %struct.SGAVideoContext, ptr %18, i32 0, i32 14
  %20 = load i32, ptr %19, align 4, !tbaa !48
  %21 = icmp slt i32 %17, %20
  br i1 %21, label %23, label %22

22:                                               ; preds = %16
  store i32 2, ptr %7, align 4
  call void @llvm.lifetime.end.p0(i64 4, ptr %6) #10
  br label %111

23:                                               ; preds = %16
  call void @llvm.lifetime.start.p0(i64 4, ptr %8) #10
  store i32 0, ptr %8, align 4, !tbaa !49
  br label %24

24:                                               ; preds = %104, %23
  %25 = load i32, ptr %8, align 4, !tbaa !49
  %26 = load ptr, ptr %3, align 8, !tbaa !35
  %27 = getelementptr inbounds nuw %struct.SGAVideoContext, ptr %26, i32 0, i32 13
  %28 = load i32, ptr %27, align 8, !tbaa !47
  %29 = icmp slt i32 %25, %28
  br i1 %29, label %31, label %30

30:                                               ; preds = %24
  store i32 5, ptr %7, align 4
  call void @llvm.lifetime.end.p0(i64 4, ptr %8) #10
  br label %107

31:                                               ; preds = %24
  call void @llvm.lifetime.start.p0(i64 4, ptr %9) #10
  %32 = load ptr, ptr %3, align 8, !tbaa !35
  %33 = getelementptr inbounds nuw %struct.SGAVideoContext, ptr %32, i32 0, i32 21
  %34 = load ptr, ptr %33, align 8, !tbaa !53
  %35 = load i32, ptr %6, align 4, !tbaa !49
  %36 = load ptr, ptr %3, align 8, !tbaa !35
  %37 = getelementptr inbounds nuw %struct.SGAVideoContext, ptr %36, i32 0, i32 13
  %38 = load i32, ptr %37, align 8, !tbaa !47
  %39 = mul nsw i32 %35, %38
  %40 = load i32, ptr %8, align 4, !tbaa !49
  %41 = add nsw i32 %39, %40
  %42 = sext i32 %41 to i64
  %43 = getelementptr inbounds i8, ptr %34, i64 %42
  %44 = load i8, ptr %43, align 1, !tbaa !42
  %45 = zext i8 %44 to i32
  %46 = mul nsw i32 %45, 16
  store i32 %46, ptr %9, align 4, !tbaa !49
  call void @llvm.lifetime.start.p0(i64 8, ptr %10) #10
  %47 = load ptr, ptr %4, align 8, !tbaa !29
  %48 = getelementptr inbounds nuw %struct.AVFrame, ptr %47, i32 0, i32 0
  %49 = getelementptr inbounds [8 x ptr], ptr %48, i64 0, i64 0
  %50 = load ptr, ptr %49, align 8, !tbaa !72
  %51 = load i32, ptr %6, align 4, !tbaa !49
  %52 = mul nsw i32 %51, 8
  %53 = load ptr, ptr %4, align 8, !tbaa !29
  %54 = getelementptr inbounds nuw %struct.AVFrame, ptr %53, i32 0, i32 1
  %55 = getelementptr inbounds [8 x i32], ptr %54, i64 0, i64 0
  %56 = load i32, ptr %55, align 8, !tbaa !49
  %57 = mul nsw i32 %52, %56
  %58 = sext i32 %57 to i64
  %59 = getelementptr inbounds i8, ptr %50, i64 %58
  %60 = load i32, ptr %8, align 4, !tbaa !49
  %61 = mul nsw i32 %60, 8
  %62 = sext i32 %61 to i64
  %63 = getelementptr inbounds i8, ptr %59, i64 %62
  store ptr %63, ptr %10, align 8, !tbaa !72
  call void @llvm.lifetime.start.p0(i64 4, ptr %11) #10
  store i32 0, ptr %11, align 4, !tbaa !49
  br label %64

64:                                               ; preds = %100, %31
  %65 = load i32, ptr %11, align 4, !tbaa !49
  %66 = icmp slt i32 %65, 8
  br i1 %66, label %68, label %67

67:                                               ; preds = %64
  store i32 8, ptr %7, align 4
  call void @llvm.lifetime.end.p0(i64 4, ptr %11) #10
  br label %103

68:                                               ; preds = %64
  call void @llvm.lifetime.start.p0(i64 4, ptr %12) #10
  store i32 0, ptr %12, align 4, !tbaa !49
  br label %69

69:                                               ; preds = %87, %68
  %70 = load i32, ptr %12, align 4, !tbaa !49
  %71 = icmp slt i32 %70, 8
  br i1 %71, label %73, label %72

72:                                               ; preds = %69
  store i32 11, ptr %7, align 4
  call void @llvm.lifetime.end.p0(i64 4, ptr %12) #10
  br label %90

73:                                               ; preds = %69
  %74 = load i32, ptr %9, align 4, !tbaa !49
  %75 = load ptr, ptr %5, align 8, !tbaa !72
  %76 = load i32, ptr %12, align 4, !tbaa !49
  %77 = sext i32 %76 to i64
  %78 = getelementptr inbounds i8, ptr %75, i64 %77
  %79 = load i8, ptr %78, align 1, !tbaa !42
  %80 = zext i8 %79 to i32
  %81 = add nsw i32 %74, %80
  %82 = trunc i32 %81 to i8
  %83 = load ptr, ptr %10, align 8, !tbaa !72
  %84 = load i32, ptr %12, align 4, !tbaa !49
  %85 = sext i32 %84 to i64
  %86 = getelementptr inbounds i8, ptr %83, i64 %85
  store i8 %82, ptr %86, align 1, !tbaa !42
  br label %87

87:                                               ; preds = %73
  %88 = load i32, ptr %12, align 4, !tbaa !49
  %89 = add nsw i32 %88, 1
  store i32 %89, ptr %12, align 4, !tbaa !49
  br label %69, !llvm.loop !104

90:                                               ; preds = %72
  %91 = load ptr, ptr %5, align 8, !tbaa !72
  %92 = getelementptr inbounds i8, ptr %91, i64 8
  store ptr %92, ptr %5, align 8, !tbaa !72
  %93 = load ptr, ptr %4, align 8, !tbaa !29
  %94 = getelementptr inbounds nuw %struct.AVFrame, ptr %93, i32 0, i32 1
  %95 = getelementptr inbounds [8 x i32], ptr %94, i64 0, i64 0
  %96 = load i32, ptr %95, align 8, !tbaa !49
  %97 = load ptr, ptr %10, align 8, !tbaa !72
  %98 = sext i32 %96 to i64
  %99 = getelementptr inbounds i8, ptr %97, i64 %98
  store ptr %99, ptr %10, align 8, !tbaa !72
  br label %100

100:                                              ; preds = %90
  %101 = load i32, ptr %11, align 4, !tbaa !49
  %102 = add nsw i32 %101, 1
  store i32 %102, ptr %11, align 4, !tbaa !49
  br label %64, !llvm.loop !105

103:                                              ; preds = %67
  call void @llvm.lifetime.end.p0(i64 8, ptr %10) #10
  call void @llvm.lifetime.end.p0(i64 4, ptr %9) #10
  br label %104

104:                                              ; preds = %103
  %105 = load i32, ptr %8, align 4, !tbaa !49
  %106 = add nsw i32 %105, 1
  store i32 %106, ptr %8, align 4, !tbaa !49
  br label %24, !llvm.loop !106

107:                                              ; preds = %30
  br label %108

108:                                              ; preds = %107
  %109 = load i32, ptr %6, align 4, !tbaa !49
  %110 = add nsw i32 %109, 1
  store i32 %110, ptr %6, align 4, !tbaa !49
  br label %16, !llvm.loop !107

111:                                              ; preds = %22
  store i32 1, ptr %7, align 4
  call void @llvm.lifetime.end.p0(i64 8, ptr %5) #10
  ret i32 0
}