; Function Attrs: nofree norecurse nosync nounwind memory(readwrite, inaccessiblemem: none) uwtable
define internal fastcc void @decode_index_palmap(ptr noundef readonly captures(none) %0, ptr noundef readonly captures(none) %1) unnamed_addr #7 {
  %3 = getelementptr inbounds nuw i8, ptr %0, i64 76
  %4 = load i32, ptr %3, align 4, !tbaa !37
  %5 = icmp sgt i32 %4, 0
  br i1 %5, label %.preheader32.lr.ph, label %._crit_edge41

.preheader32.lr.ph:                               ; preds = %2
  %6 = getelementptr inbounds nuw i8, ptr %0, i64 72
  %7 = getelementptr inbounds nuw i8, ptr %0, i64 1136
  %8 = getelementptr inbounds nuw i8, ptr %1, i64 64
  %9 = load i32, ptr %6, align 8, !tbaa !36
  %10 = icmp sgt i32 %9, 0
  br i1 %10, label %.preheader32.preheader, label %._crit_edge41

.preheader32.preheader:                           ; preds = %.preheader32.lr.ph
  %11 = getelementptr inbounds nuw i8, ptr %0, i64 1120
  %12 = load ptr, ptr %11, align 8, !tbaa !40
  br label %.preheader32

.preheader32:                                     ; preds = %.preheader32.preheader, %._crit_edge
  %13 = phi i32 [ %17, %._crit_edge ], [ %4, %.preheader32.preheader ]
  %14 = phi i32 [ %18, %._crit_edge ], [ %9, %.preheader32.preheader ]
  %.02840 = phi ptr [ %.1.lcssa, %._crit_edge ], [ %12, %.preheader32.preheader ]
  %.03039 = phi i32 [ %19, %._crit_edge ], [ 0, %.preheader32.preheader ]
  %15 = icmp sgt i32 %14, 0
  br i1 %15, label %.lr.ph, label %._crit_edge

.lr.ph:                                           ; preds = %.preheader32
  %16 = shl nsw i32 %.03039, 3
  %.pre = load i32, ptr %8, align 8, !tbaa !51
  br label %21

._crit_edge41:                                    ; preds = %._crit_edge, %.preheader32.lr.ph, %2
  ret void

._crit_edge.loopexit:                             ; preds = %38
  %.pre48 = load i32, ptr %3, align 4, !tbaa !37
  br label %._crit_edge

._crit_edge:                                      ; preds = %._crit_edge.loopexit, %.preheader32
  %17 = phi i32 [ %13, %.preheader32 ], [ %.pre48, %._crit_edge.loopexit ]
  %18 = phi i32 [ %14, %.preheader32 ], [ %39, %._crit_edge.loopexit ]
  %.1.lcssa = phi ptr [ %.02840, %.preheader32 ], [ %43, %._crit_edge.loopexit ]
  %19 = add nuw nsw i32 %.03039, 1
  %20 = icmp slt i32 %19, %17
  br i1 %20, label %.preheader32, label %._crit_edge41, !llvm.loop !92

21:                                               ; preds = %.lr.ph, %38
  %22 = phi i32 [ %.pre, %.lr.ph ], [ %44, %38 ]
  %indvars.iv45 = phi i64 [ 0, %.lr.ph ], [ %indvars.iv.next46, %38 ]
  %23 = phi i32 [ %14, %.lr.ph ], [ %39, %38 ]
  %.138 = phi ptr [ %.02840, %.lr.ph ], [ %43, %38 ]
  %24 = load ptr, ptr %7, align 8, !tbaa !41
  %25 = mul nsw i32 %23, %.03039
  %26 = trunc nuw nsw i64 %indvars.iv45 to i32
  %27 = add nsw i32 %25, %26
  %28 = sext i32 %27 to i64
  %29 = getelementptr inbounds i8, ptr %24, i64 %28
  %30 = load i8, ptr %29, align 1, !tbaa !31
  %31 = shl i8 %30, 4
  %32 = load ptr, ptr %1, align 8, !tbaa !45
  %33 = mul nsw i32 %16, %22
  %34 = sext i32 %33 to i64
  %35 = getelementptr inbounds i8, ptr %32, i64 %34
  %36 = shl nsw i64 %indvars.iv45, 3
  %37 = getelementptr inbounds nuw i8, ptr %35, i64 %36
  br label %.preheader

.preheader:                                       ; preds = %21, %42
  %.02636 = phi i32 [ 0, %21 ], [ %47, %42 ]
  %.02735 = phi ptr [ %37, %21 ], [ %46, %42 ]
  %.234 = phi ptr [ %.138, %21 ], [ %43, %42 ]
  br label %48

38:                                               ; preds = %42
  %indvars.iv.next46 = add nuw nsw i64 %indvars.iv45, 1
  %39 = load i32, ptr %6, align 8, !tbaa !36
  %40 = sext i32 %39 to i64
  %41 = icmp slt i64 %indvars.iv.next46, %40
  br i1 %41, label %21, label %._crit_edge.loopexit, !llvm.loop !93

42:                                               ; preds = %48
  %43 = getelementptr inbounds nuw i8, ptr %.234, i64 8
  %44 = load i32, ptr %8, align 8, !tbaa !51
  %45 = sext i32 %44 to i64
  %46 = getelementptr inbounds i8, ptr %.02735, i64 %45
  %47 = add nuw nsw i32 %.02636, 1
  %exitcond44.not = icmp eq i32 %47, 8
  br i1 %exitcond44.not, label %38, label %.preheader, !llvm.loop !94

48:                                               ; preds = %.preheader, %48
  %indvars.iv = phi i64 [ 0, %.preheader ], [ %indvars.iv.next, %48 ]
  %49 = getelementptr inbounds nuw i8, ptr %.234, i64 %indvars.iv
  %50 = load i8, ptr %49, align 1, !tbaa !31
  %51 = add i8 %50, %31
  %52 = getelementptr inbounds nuw i8, ptr %.02735, i64 %indvars.iv
  store i8 %51, ptr %52, align 1, !tbaa !31
  %indvars.iv.next = add nuw nsw i64 %indvars.iv, 1
  %exitcond.not = icmp eq i64 %indvars.iv.next, 8
  br i1 %exitcond.not, label %42, label %48, !llvm.loop !95
}